target datalayout = "e-m:e-p270:32:32-p271:32:32-p272:64:64-i64:64-i128:128-f80:128-n8:16:32:64-S128"
target triple = "x86_64-pc-linux-gnu"

%"class.sat::literal" = type { i32 }
%"class.pb::card" = type { %"class.pb::constraint", [0 x %"class.sat::literal"] }
%"class.pb::constraint" = type { ptr, i32, i8, %"class.sat::literal", %"class.sat::literal", i32, i32, i32, i64, i8, i32, i8, i32 }

@_ZN3sat12null_literalE = linkonce_odr hidden constant %"class.sat::literal" { i32 -2 }, comdat, align 4

; Function Attrs: mustprogress nounwind uwtable
define linkonce_odr hidden i32 @_ZNK2pb4cardixEj(ptr noundef nonnull align 8 dereferenceable(64) %0, i32 noundef %1) #6 comdat align 2 {
  %3 = alloca %"class.sat::literal", align 4
  %4 = alloca ptr, align 8
  %5 = alloca i32, align 4
  store ptr %0, ptr %4, align 8, !tbaa !3
  store i32 %1, ptr %5, align 4, !tbaa !8
  %6 = load ptr, ptr %4, align 8
  %7 = getelementptr inbounds nuw %"class.pb::card", ptr %6, i32 0, i32 1
  %8 = load i32, ptr %5, align 4, !tbaa !8
  %9 = zext i32 %8 to i64
  %10 = getelementptr inbounds nuw [0 x %"class.sat::literal"], ptr %7, i64 0, i64 %9
  call void @llvm.memcpy.p0.p0.i64(ptr align 4 %3, ptr align 4 %10, i64 4, i1 false), !tbaa.struct !12
  %11 = getelementptr inbounds nuw %"class.sat::literal", ptr %3, i32 0, i32 0
  %12 = load i32, ptr %11, align 4
  ret i32 %12
}

; Function Attrs: mustprogress nounwind uwtable
define linkonce_odr hidden noundef i32 @_ZNK2pb10constraint4sizeEv(ptr noundef nonnull align 8 dereferenceable(64) %0) #6 comdat align 2 {
  %2 = alloca ptr, align 8
  store ptr %0, ptr %2, align 8, !tbaa !22
  %3 = load ptr, ptr %2, align 8
  %4 = getelementptr inbounds nuw %"class.pb::constraint", ptr %3, i32 0, i32 7
  %5 = load i32, ptr %4, align 8, !tbaa !35
  ret i32 %5
}

; Function Attrs: mustprogress nounwind uwtable
define linkonce_odr hidden noundef i32 @_ZNK2pb10constraint1kEv(ptr noundef nonnull align 8 dereferenceable(64) %0) #6 comdat align 2 {
  %2 = alloca ptr, align 8
  store ptr %0, ptr %2, align 8, !tbaa !22
  %3 = load ptr, ptr %2, align 8
  %4 = getelementptr inbounds nuw %"class.pb::constraint", ptr %3, i32 0, i32 12
  %5 = load i32, ptr %4, align 4, !tbaa !40
  ret i32 %5
}

; Function Attrs: inlinehint mustprogress nounwind uwtable
define linkonce_odr hidden noundef zeroext i1 @_ZN3satneERKNS_7literalES2_(ptr noundef nonnull align 4 dereferenceable(4) %0, ptr noundef nonnull align 4 dereferenceable(4) %1) #8 comdat {
  %3 = alloca ptr, align 8
  %4 = alloca ptr, align 8
  store ptr %0, ptr %3, align 8, !tbaa !42
  store ptr %1, ptr %4, align 8, !tbaa !42
  %5 = load ptr, ptr %3, align 8, !tbaa !42
  %6 = getelementptr inbounds nuw %"class.sat::literal", ptr %5, i32 0, i32 0
  %7 = load i32, ptr %6, align 4, !tbaa !43
  %8 = load ptr, ptr %4, align 8, !tbaa !42
  %9 = getelementptr inbounds nuw %"class.sat::literal", ptr %8, i32 0, i32 0
  %10 = load i32, ptr %9, align 4, !tbaa !43
  %11 = icmp ne i32 %7, %10
  ret i1 %11
}

; Function Attrs: mustprogress nounwind uwtable
define linkonce_odr hidden i32 @_ZNK2pb10constraint3litEv(ptr noundef nonnull align 8 dereferenceable(64) %0) #6 comdat align 2 {
  %2 = alloca %"class.sat::literal", align 4
  %3 = alloca ptr, align 8
  store ptr %0, ptr %3, align 8, !tbaa !22
  %4 = load ptr, ptr %3, align 8
  %5 = getelementptr inbounds nuw %"class.pb::constraint", ptr %4, i32 0, i32 3
  call void @llvm.memcpy.p0.p0.i64(ptr align 4 %2, ptr align 8 %5, i64 4, i1 false), !tbaa.struct !12
  %6 = getelementptr inbounds nuw %"class.sat::literal", ptr %2, i32 0, i32 0
  %7 = load i32, ptr %6, align 4
  ret i32 %7
}

; Function Attrs: mustprogress uwtable
define hidden noundef zeroext i1 @_ZNK2pb4card25validate_unit_propagationERKNS_16solver_interfaceEN3sat7literalE(ptr noundef nonnull align 8 dereferenceable(64) %0, ptr noundef nonnull align 8 dereferenceable(8) %1, i32 %2) unnamed_addr #4 align 2 {
  %4 = alloca i1, align 1
  %5 = alloca %"class.sat::literal", align 4
  %6 = alloca ptr, align 8
  %7 = alloca ptr, align 8
  %8 = alloca %"class.sat::literal", align 4
  %9 = alloca %"class.sat::literal", align 4
  %10 = alloca i32, align 4
  %11 = alloca i32, align 4
  %12 = alloca %"class.sat::literal", align 4
  %13 = getelementptr inbounds nuw %"class.sat::literal", ptr %5, i32 0, i32 0
  store i32 %2, ptr %13, align 4
  store ptr %0, ptr %6, align 8, !tbaa !3
  store ptr %1, ptr %7, align 8, !tbaa !47
  %14 = load ptr, ptr %6, align 8
  call void @llvm.lifetime.start.p0(i64 4, ptr %8) #3
  %15 = call i32 @_ZNK2pb10constraint3litEv(ptr noundef nonnull align 8 dereferenceable(64) %14)
  %16 = getelementptr inbounds nuw %"class.sat::literal", ptr %8, i32 0, i32 0
  store i32 %15, ptr %16, align 4
  %17 = call noundef zeroext i1 @_ZN3satneERKNS_7literalES2_(ptr noundef nonnull align 4 dereferenceable(4) %8, ptr noundef nonnull align 4 dereferenceable(4) @_ZN3sat12null_literalE)
  br i1 %17, label %18, label %29

18:                                               ; preds = %3
  %19 = load ptr, ptr %7, align 8, !tbaa !47
  %20 = call i32 @_ZNK2pb10constraint3litEv(ptr noundef nonnull align 8 dereferenceable(64) %14)
  %21 = getelementptr inbounds nuw %"class.sat::literal", ptr %9, i32 0, i32 0
  store i32 %20, ptr %21, align 4
  %22 = getelementptr inbounds nuw %"class.sat::literal", ptr %9, i32 0, i32 0
  %23 = load i32, ptr %22, align 4
  %24 = load ptr, ptr %19, align 8, !tbaa !13
  %25 = getelementptr inbounds ptr, ptr %24, i64 3
  %26 = load ptr, ptr %25, align 8
  %27 = call noundef i32 %26(ptr noundef nonnull align 8 dereferenceable(8) %19, i32 %23)
  %28 = icmp ne i32 %27, 1
  br label %29

29:                                               ; preds = %18, %3
  %30 = phi i1 [ false, %3 ], [ %28, %18 ]
  call void @llvm.lifetime.end.p0(i64 4, ptr %8) #3
  br i1 %30, label %31, label %32

31:                                               ; preds = %29
  store i1 false, ptr %4, align 1
  br label %59

32:                                               ; preds = %29
  call void @llvm.lifetime.start.p0(i64 4, ptr %10) #3
  %33 = call noundef i32 @_ZNK2pb10constraint1kEv(ptr noundef nonnull align 8 dereferenceable(64) %14)
  store i32 %33, ptr %10, align 4, !tbaa !8
  br label %34

34:                                               ; preds = %53, %32
  %35 = load i32, ptr %10, align 4, !tbaa !8
  %36 = call noundef i32 @_ZNK2pb10constraint4sizeEv(ptr noundef nonnull align 8 dereferenceable(64) %14)
  %37 = icmp ult i32 %35, %36
  br i1 %37, label %39, label %38

38:                                               ; preds = %34
  store i32 2, ptr %11, align 4
  br label %56

39:                                               ; preds = %34
  %40 = load ptr, ptr %7, align 8, !tbaa !47
  %41 = load i32, ptr %10, align 4, !tbaa !8
  %42 = call i32 @_ZNK2pb4cardixEj(ptr noundef nonnull align 8 dereferenceable(64) %14, i32 noundef %41)
  %43 = getelementptr inbounds nuw %"class.sat::literal", ptr %12, i32 0, i32 0
  store i32 %42, ptr %43, align 4
  %44 = getelementptr inbounds nuw %"class.sat::literal", ptr %12, i32 0, i32 0
  %45 = load i32, ptr %44, align 4
  %46 = load ptr, ptr %40, align 8, !tbaa !13
  %47 = getelementptr inbounds ptr, ptr %46, i64 3
  %48 = load ptr, ptr %47, align 8
  %49 = call noundef i32 %48(ptr noundef nonnull align 8 dereferenceable(8) %40, i32 %45)
  %50 = icmp ne i32 %49, -1
  br i1 %50, label %51, label %52

51:                                               ; preds = %39
  store i1 false, ptr %4, align 1
  store i32 1, ptr %11, align 4
  br label %56

52:                                               ; preds = %39
  br label %53

53:                                               ; preds = %52
  %54 = load i32, ptr %10, align 4, !tbaa !8
  %55 = add i32 %54, 1
  store i32 %55, ptr %10, align 4, !tbaa !8
  br label %34, !llvm.loop !79

56:                                               ; preds = %51, %38
  call void @llvm.lifetime.end.p0(i64 4, ptr %10) #3
  %57 = load i32, ptr %11, align 4
  switch i32 %57, label %61 [
    i32 2, label %58
    i32 1, label %59
  ]

58:                                               ; preds = %56
  store i1 true, ptr %4, align 1
  br label %59

59:                                               ; preds = %58, %56, %31
  %60 = load i1, ptr %4, align 1
  ret i1 %60

61:                                               ; preds = %56
  unreachable
}