; Function Attrs: mustprogress uwtable
define hidden noundef zeroext i1 @_ZNK2pb4card25validate_unit_propagationERKNS_16solver_interfaceEN3sat7literalE(ptr noundef nonnull readonly align 8 captures(none) dereferenceable(64) %0, ptr noundef nonnull align 8 dereferenceable(8) %1, i32 %2) unnamed_addr #8 align 2 {
  %4 = getelementptr inbounds nuw i8, ptr %0, i64 16
  %.sroa.0.0.copyload.i = load i32, ptr %4, align 8, !tbaa !9
  %.not14 = icmp eq i32 %.sroa.0.0.copyload.i, -2
  br i1 %.not14, label %.critedge, label %5

5:                                                ; preds = %3
  %6 = load ptr, ptr %1, align 8, !tbaa !26
  %7 = getelementptr inbounds nuw i8, ptr %6, i64 24
  %8 = load ptr, ptr %7, align 8
  %9 = tail call noundef i32 %8(ptr noundef nonnull align 8 dereferenceable(8) %1, i32 %.sroa.0.0.copyload.i)
  %.not = icmp eq i32 %9, 1
  br i1 %.not, label %.critedge, label %.loopexit

.critedge:                                        ; preds = %3, %5
  %10 = getelementptr inbounds nuw i8, ptr %0, i64 60
  %11 = load i32, ptr %10, align 4, !tbaa !25
  %12 = getelementptr inbounds nuw i8, ptr %0, i64 64
  %13 = getelementptr inbounds nuw i8, ptr %0, i64 32
  %14 = load i32, ptr %13, align 8, !tbaa !20
  %.not18 = icmp ult i32 %11, %14
  br i1 %.not18, label %.lr.ph.preheader, label %.loopexit

.lr.ph.preheader:                                 ; preds = %.critedge
  %15 = zext i32 %11 to i64
  br label %.lr.ph

16:                                               ; preds = %.lr.ph
  %indvars.iv.next = add nuw nsw i64 %indvars.iv, 1
  %17 = load i32, ptr %13, align 8, !tbaa !20
  %18 = zext i32 %17 to i64
  %.not19 = icmp samesign ult i64 %indvars.iv.next, %18
  br i1 %.not19, label %.lr.ph, label %.loopexit, !llvm.loop !56

.lr.ph:                                           ; preds = %.lr.ph.preheader, %16
  %indvars.iv = phi i64 [ %15, %.lr.ph.preheader ], [ %indvars.iv.next, %16 ]
  %19 = getelementptr inbounds nuw [0 x %"class.sat::literal"], ptr %12, i64 0, i64 %indvars.iv
  %.sroa.0.0.copyload.i13 = load i32, ptr %19, align 4, !tbaa !9
  %20 = load ptr, ptr %1, align 8, !tbaa !26
  %21 = getelementptr inbounds nuw i8, ptr %20, i64 24
  %22 = load ptr, ptr %21, align 8
  %23 = tail call noundef i32 %22(ptr noundef nonnull align 8 dereferenceable(8) %1, i32 %.sroa.0.0.copyload.i13)
  %.not11 = icmp eq i32 %23, -1
  br i1 %.not11, label %16, label %.loopexit

.loopexit:                                        ; preds = %.lr.ph, %16, %.critedge, %5
  %.0 = phi i1 [ false, %5 ], [ true, %.critedge ], [ %.not11, %16 ], [ %.not11, %.lr.ph ]
  ret i1 %.0
}